; ModuleID = 'source-C-CXX/49/1647.c'
source_filename = "source-C-CXX/49/1647.c"
target datalayout = "e-m:e-p270:32:32-p271:32:32-p272:64:64-i64:64-f80:128-n8:16:32:64-S128"
target triple = "x86_64-pc-linux-gnu"

@.str = private unnamed_addr constant [3 x i8] c"%d\00", align 1
@.str.1 = private unnamed_addr constant [4 x i8] c"%d\0A\00", align 1

; Function Attrs: nofree nounwind sspstrong uwtable
define dso_local i32 @main() local_unnamed_addr #0 {
  %1 = alloca i32, align 4
  %2 = bitcast i32* %1 to i8*
  call void @llvm.lifetime.start.p0i8(i64 4, i8* nonnull %2) #3
  %3 = call i32 (i8*, ...) @__isoc99_scanf(i8* getelementptr inbounds ([3 x i8], [3 x i8]* @.str, i64 0, i64 0), i32* nonnull %1)
  %4 = load i32, i32* %1, align 4, !tbaa !5
  %5 = icmp sgt i32 %4, 5
  %6 = select i1 %5, i32 12, i32 5
  %7 = sub i32 %6, %4
  %8 = icmp eq i32 %7, 5
  br i1 %8, label %12, label %9

9:                                                ; preds = %0
  switch i32 %7, label %19 [
    i32 1, label %10
    i32 4, label %16
    i32 6, label %25
  ]

10:                                               ; preds = %9
  %11 = call i32 (i8*, ...) @printf(i8* nonnull dereferenceable(1) getelementptr inbounds ([4 x i8], [4 x i8]* @.str.1, i64 0, i64 0), i32 2)
  br label %12

12:                                               ; preds = %0, %10
  %13 = phi i32 [ 3, %10 ], [ 1, %0 ]
  %14 = xor i1 %8, true
  %15 = call i32 (i8*, ...) @printf(i8* nonnull dereferenceable(1) getelementptr inbounds ([4 x i8], [4 x i8]* @.str.1, i64 0, i64 0), i32 %13)
  br label %19

16:                                               ; preds = %9
  %17 = call i32 (i8*, ...) @printf(i8* nonnull dereferenceable(1) getelementptr inbounds ([4 x i8], [4 x i8]* @.str.1, i64 0, i64 0), i32 4)
  %18 = call i32 (i8*, ...) @printf(i8* nonnull dereferenceable(1) getelementptr inbounds ([4 x i8], [4 x i8]* @.str.1, i64 0, i64 0), i32 7)
  br label %22

19:                                               ; preds = %9, %12
  %20 = phi i1 [ %14, %12 ], [ false, %9 ]
  %21 = icmp eq i32 %7, 2
  br i1 %21, label %25, label %22

22:                                               ; preds = %19, %16
  %23 = phi i1 [ false, %16 ], [ %20, %19 ]
  switch i32 %7, label %30 [
    i32 0, label %25
    i32 3, label %24
  ]

24:                                               ; preds = %22
  br label %25

25:                                               ; preds = %9, %19, %22, %24
  %26 = phi i32 [ 9, %24 ], [ 8, %22 ], [ 5, %9 ], [ 6, %19 ]
  %27 = phi i1 [ true, %24 ], [ false, %22 ], [ false, %9 ], [ false, %19 ]
  %28 = phi i1 [ %23, %24 ], [ %23, %22 ], [ false, %9 ], [ %20, %19 ]
  %29 = call i32 (i8*, ...) @printf(i8* nonnull dereferenceable(1) getelementptr inbounds ([4 x i8], [4 x i8]* @.str.1, i64 0, i64 0), i32 %26)
  br label %30

30:                                               ; preds = %25, %22
  %31 = phi i1 [ false, %22 ], [ %27, %25 ]
  %32 = phi i1 [ %23, %22 ], [ %28, %25 ]
  br i1 %8, label %33, label %35

33:                                               ; preds = %30
  %34 = call i32 (i8*, ...) @printf(i8* nonnull dereferenceable(1) getelementptr inbounds ([4 x i8], [4 x i8]* @.str.1, i64 0, i64 0), i32 10)
  br label %35

35:                                               ; preds = %33, %30
  br i1 %32, label %36, label %38

36:                                               ; preds = %35
  %37 = call i32 (i8*, ...) @printf(i8* nonnull dereferenceable(1) getelementptr inbounds ([4 x i8], [4 x i8]* @.str.1, i64 0, i64 0), i32 11)
  br label %38

38:                                               ; preds = %36, %35
  br i1 %31, label %39, label %41

39:                                               ; preds = %38
  %40 = call i32 (i8*, ...) @printf(i8* nonnull dereferenceable(1) getelementptr inbounds ([4 x i8], [4 x i8]* @.str.1, i64 0, i64 0), i32 12)
  br label %41

41:                                               ; preds = %39, %38
  call void @llvm.lifetime.end.p0i8(i64 4, i8* nonnull %2) #3
  ret i32 0
}

; Function Attrs: argmemonly mustprogress nofree nosync nounwind willreturn
declare void @llvm.lifetime.start.p0i8(i64 immarg, i8* nocapture) #1

; Function Attrs: nofree nounwind
declare noundef i32 @__isoc99_scanf(i8* nocapture noundef readonly, ...) local_unnamed_addr #2

; Function Attrs: nofree nounwind
declare noundef i32 @printf(i8* nocapture noundef readonly, ...) local_unnamed_addr #2

; Function Attrs: argmemonly mustprogress nofree nosync nounwind willreturn
declare void @llvm.lifetime.end.p0i8(i64 immarg, i8* nocapture) #1


!llvm.module.flags = !{!0, !1, !2, !3}
!llvm.ident = !{!4}

!0 = !{i32 1, !"wchar_size", i32 4}
!1 = !{i32 7, !"PIC Level", i32 2}
!2 = !{i32 7, !"PIE Level", i32 2}
!3 = !{i32 7, !"uwtable", i32 1}
!4 = !{!"clang version 13.0.0"}
!5 = !{!6, !6, i64 0}
!6 = !{!"int", !7, i64 0}
!7 = !{!"omnipotent char", !8, i64 0}
!8 = !{!"Simple C/C++ TBAA"}
